; Function Attrs: mustprogress uwtable
define void @_ZNK5arrow8internal7TDigest4DumpEv(ptr noundef nonnull align 8 dereferenceable(32) %0) local_unnamed_addr #3 align 2 {
  %2 = getelementptr inbounds nuw i8, ptr %0, i64 8
  %3 = load ptr, ptr %2, align 8, !tbaa !12
  %4 = load ptr, ptr %0, align 8, !tbaa !11
  %.not.i = icmp eq ptr %3, %4
  br i1 %.not.i, label %_ZNK5arrow8internal7TDigest10MergeInputEv.exit, label %5

5:                                                ; preds = %1
  %6 = getelementptr inbounds nuw i8, ptr %0, i64 24
  %7 = load ptr, ptr %6, align 8, !tbaa !3
  tail call void @_ZN5arrow8internal7TDigest11TDigestImpl10MergeInputERSt6vectorIdSaIdEE(ptr noundef nonnull align 8 dereferenceable(124) %7, ptr noundef nonnull align 8 dereferenceable(32) %0)
  br label %_ZNK5arrow8internal7TDigest10MergeInputEv.exit

_ZNK5arrow8internal7TDigest10MergeInputEv.exit:   ; preds = %1, %5
  %8 = getelementptr inbounds nuw i8, ptr %0, i64 24
  %9 = load ptr, ptr %8, align 8, !tbaa !3
  tail call void @_ZNK5arrow8internal7TDigest11TDigestImpl4DumpEv(ptr noundef nonnull align 8 dereferenceable(124) %9)
  ret void
}